target datalayout = "e-m:e-p270:32:32-p271:32:32-p272:64:64-i64:64-i128:128-f80:128-n8:16:32:64-S128"
target triple = "x86_64-pc-linux-gnu"

; Function Attrs: inlinehint mustprogress nounwind uwtable
define internal noundef signext i8 @_ZL9U_FAILURE10UErrorCode(i32 noundef %0) #4 {
  %2 = alloca i32, align 4
  store i32 %0, ptr %2, align 4, !tbaa !19
  %3 = load i32, ptr %2, align 4, !tbaa !19
  %4 = icmp sgt i32 %3, 0
  %5 = zext i1 %4 to i8
  ret i8 %5
}

; Function Attrs: mustprogress uwtable
define noundef i32 @_ZNK6icu_7715IslamicCalendar20handleGetMonthLengthEiiR10UErrorCode(ptr noundef nonnull align 8 dereferenceable(192) %0, i32 noundef %1, i32 noundef %2, ptr noundef nonnull align 4 dereferenceable(4) %3) unnamed_addr #1 align 2 {
  %5 = alloca i32, align 4
  %6 = alloca ptr, align 8
  %7 = alloca i32, align 4
  %8 = alloca i32, align 4
  %9 = alloca ptr, align 8
  %10 = alloca i32, align 4
  %11 = alloca i32, align 4
  store ptr %0, ptr %6, align 8, !tbaa !3
  store i32 %1, ptr %7, align 4, !tbaa !17
  store i32 %2, ptr %8, align 4, !tbaa !17
  store ptr %3, ptr %9, align 8, !tbaa !12
  %12 = load i32, ptr %7, align 4, !tbaa !17
  %13 = sub nsw i32 %12, 1
  %14 = mul nsw i32 12, %13
  %15 = load i32, ptr %8, align 4, !tbaa !17
  %16 = add nsw i32 %14, %15
  store i32 %16, ptr %8, align 4, !tbaa !17
  call void @llvm.lifetime.start.p0(i64 4, ptr %10) #8
  %17 = load i32, ptr %8, align 4, !tbaa !17
  %18 = add nsw i32 %17, 1
  %19 = load ptr, ptr %9, align 8, !tbaa !12
  %20 = call noundef i32 @_ZN6icu_7712_GLOBAL__N_114trueMonthStartEiR10UErrorCode(i32 noundef %18, ptr noundef nonnull align 4 dereferenceable(4) %19)
  %21 = load i32, ptr %8, align 4, !tbaa !17
  %22 = load ptr, ptr %9, align 8, !tbaa !12
  %23 = call noundef i32 @_ZN6icu_7712_GLOBAL__N_114trueMonthStartEiR10UErrorCode(i32 noundef %21, ptr noundef nonnull align 4 dereferenceable(4) %22)
  %24 = sub nsw i32 %20, %23
  store i32 %24, ptr %10, align 4, !tbaa !17
  %25 = load ptr, ptr %9, align 8, !tbaa !12
  %26 = load i32, ptr %25, align 4, !tbaa !19
  %27 = call noundef signext i8 @_ZL9U_FAILURE10UErrorCode(i32 noundef %26)
  %28 = icmp ne i8 %27, 0
  br i1 %28, label %29, label %30

29:                                               ; preds = %4
  store i32 0, ptr %5, align 4
  store i32 1, ptr %11, align 4
  br label %32

30:                                               ; preds = %4
  %31 = load i32, ptr %10, align 4, !tbaa !17
  store i32 %31, ptr %5, align 4
  store i32 1, ptr %11, align 4
  br label %32

32:                                               ; preds = %30, %29
  call void @llvm.lifetime.end.p0(i64 4, ptr %10) #8
  %33 = load i32, ptr %5, align 4
  ret i32 %33
}