; Function Attrs: mustprogress uwtable
define noundef i32 @_ZNK6icu_7715IslamicCalendar20handleGetMonthLengthEiiR10UErrorCode(ptr nonnull readnone align 8 captures(none) %0, i32 noundef %1, i32 noundef %2, ptr noundef nonnull align 4 dereferenceable(4) %3) unnamed_addr #1 align 2 {
  %5 = mul i32 %1, 12
  %6 = add i32 %5, -12
  %7 = add nsw i32 %6, %2
  %8 = add nsw i32 %7, 1
  %9 = tail call fastcc noundef i32 @_ZN6icu_7712_GLOBAL__N_114trueMonthStartEiR10UErrorCode(i32 noundef %8, ptr noundef nonnull align 4 dereferenceable(4) %3)
  %10 = tail call fastcc noundef i32 @_ZN6icu_7712_GLOBAL__N_114trueMonthStartEiR10UErrorCode(i32 noundef %7, ptr noundef nonnull align 4 dereferenceable(4) %3)
  %11 = load i32, ptr %3, align 4, !tbaa !9
  %12 = sub nsw i32 %9, %10
  %.inv = icmp sgt i32 %11, 0
  %.0 = select i1 %.inv, i32 0, i32 %12
  ret i32 %.0
}